; Function Attrs: nounwind uwtable
define dso_local void @pq_sendfloat8(ptr noundef %0, double noundef %1) local_unnamed_addr #0 {
  %3 = bitcast double %1 to i64
  tail call void @enlargeStringInfo(ptr noundef %0, i32 noundef 8) #9
  tail call void @llvm.experimental.noalias.scope.decl(metadata !15)
  %4 = tail call i64 @llvm.bswap.i64(i64 %3)
  %5 = load ptr, ptr %0, align 8, !alias.scope !15
  %6 = getelementptr inbounds nuw i8, ptr %0, i64 8
  %7 = load i32, ptr %6, align 8, !alias.scope !15
  %8 = sext i32 %7 to i64
  %9 = getelementptr inbounds i8, ptr %5, i64 %8
  store i64 %4, ptr %9, align 1, !noalias !15
  %10 = add i32 %7, 8
  store i32 %10, ptr %6, align 8, !alias.scope !15
  ret void
}